target datalayout = "e-m:e-p270:32:32-p271:32:32-p272:64:64-i64:64-i128:128-f80:128-n8:16:32:64-S128"
target triple = "x86_64-pc-linux-gnu"

%"class.Imf_3_4::TimeCode" = type { i32, i32 }

@_ZTIN7Iex_3_46ArgExcE = external constant ptr
@.str.4 = private unnamed_addr constant [85 x i8] c"Cannot extract binary group from time code user data.  Group number is out of range.\00", align 1

; Function Attrs: mustprogress nounwind uwtable
define internal void @_ZN7Imf_3_412_GLOBAL__N_111setBitFieldERjiij(ptr noundef nonnull align 4 dereferenceable(4) %0, i32 noundef %1, i32 noundef %2, i32 noundef %3) #0 {
  %5 = alloca ptr, align 8
  %6 = alloca i32, align 4
  %7 = alloca i32, align 4
  %8 = alloca i32, align 4
  %9 = alloca i32, align 4
  %10 = alloca i32, align 4
  store ptr %0, ptr %5, align 8, !tbaa !19
  store i32 %1, ptr %6, align 4, !tbaa !12
  store i32 %2, ptr %7, align 4, !tbaa !12
  store i32 %3, ptr %8, align 4, !tbaa !12
  call void @llvm.lifetime.start.p0(i64 4, ptr %9) #5
  %11 = load i32, ptr %6, align 4, !tbaa !12
  store i32 %11, ptr %9, align 4, !tbaa !12
  call void @llvm.lifetime.start.p0(i64 4, ptr %10) #5
  %12 = load i32, ptr %7, align 4, !tbaa !12
  %13 = load i32, ptr %6, align 4, !tbaa !12
  %14 = sub nsw i32 %12, %13
  %15 = add nsw i32 %14, 1
  %16 = shl i32 -1, %15
  %17 = xor i32 %16, -1
  %18 = load i32, ptr %6, align 4, !tbaa !12
  %19 = shl i32 %17, %18
  store i32 %19, ptr %10, align 4, !tbaa !12
  %20 = load ptr, ptr %5, align 8, !tbaa !19
  %21 = load i32, ptr %20, align 4, !tbaa !12
  %22 = load i32, ptr %10, align 4, !tbaa !12
  %23 = xor i32 %22, -1
  %24 = and i32 %21, %23
  %25 = load i32, ptr %8, align 4, !tbaa !12
  %26 = load i32, ptr %9, align 4, !tbaa !12
  %27 = shl i32 %25, %26
  %28 = load i32, ptr %10, align 4, !tbaa !12
  %29 = and i32 %27, %28
  %30 = or i32 %24, %29
  %31 = load ptr, ptr %5, align 8, !tbaa !19
  store i32 %30, ptr %31, align 4, !tbaa !12
  call void @llvm.lifetime.end.p0(i64 4, ptr %10) #5
  call void @llvm.lifetime.end.p0(i64 4, ptr %9) #5
  ret void
}

; Function Attrs: mustprogress uwtable
define void @_ZN7Imf_3_48TimeCode14setBinaryGroupEii(ptr noundef nonnull align 4 dereferenceable(8) %0, i32 noundef %1, i32 noundef %2) #1 align 2 personality ptr @__gxx_personality_v0 {
  %4 = alloca ptr, align 8
  %5 = alloca i32, align 4
  %6 = alloca i32, align 4
  %7 = alloca ptr, align 8
  %8 = alloca i32, align 4
  %9 = alloca i32, align 4
  %10 = alloca i32, align 4
  store ptr %0, ptr %4, align 8, !tbaa !3
  store i32 %1, ptr %5, align 4, !tbaa !12
  store i32 %2, ptr %6, align 4, !tbaa !12
  %11 = load ptr, ptr %4, align 8
  %12 = load i32, ptr %5, align 4, !tbaa !12
  %13 = icmp slt i32 %12, 1
  br i1 %13, label %17, label %14

14:                                               ; preds = %3
  %15 = load i32, ptr %5, align 4, !tbaa !12
  %16 = icmp sgt i32 %15, 8
  br i1 %16, label %17, label %24

17:                                               ; preds = %14, %3
  %18 = call ptr @__cxa_allocate_exception(i64 72) #5
  invoke void @_ZN7Iex_3_46ArgExcC1EPKc(ptr noundef nonnull align 8 dereferenceable(72) %18, ptr noundef @.str.4)
          to label %19 unwind label %20

19:                                               ; preds = %17
  call void @__cxa_throw(ptr %18, ptr @_ZTIN7Iex_3_46ArgExcE, ptr @_ZN7Iex_3_46ArgExcD1Ev) #6
  unreachable

20:                                               ; preds = %17
  %21 = landingpad { ptr, i32 }
          cleanup
  %22 = extractvalue { ptr, i32 } %21, 0
  store ptr %22, ptr %7, align 8
  %23 = extractvalue { ptr, i32 } %21, 1
  store i32 %23, ptr %8, align 4
  call void @__cxa_free_exception(ptr %18) #5
  br label %34

24:                                               ; preds = %14
  call void @llvm.lifetime.start.p0(i64 4, ptr %9) #5
  %25 = load i32, ptr %5, align 4, !tbaa !12
  %26 = sub nsw i32 %25, 1
  %27 = mul nsw i32 4, %26
  store i32 %27, ptr %9, align 4, !tbaa !12
  call void @llvm.lifetime.start.p0(i64 4, ptr %10) #5
  %28 = load i32, ptr %9, align 4, !tbaa !12
  %29 = add nsw i32 %28, 3
  store i32 %29, ptr %10, align 4, !tbaa !12
  %30 = getelementptr inbounds nuw %"class.Imf_3_4::TimeCode", ptr %11, i32 0, i32 1
  %31 = load i32, ptr %9, align 4, !tbaa !12
  %32 = load i32, ptr %10, align 4, !tbaa !12
  %33 = load i32, ptr %6, align 4, !tbaa !12
  call void @_ZN7Imf_3_412_GLOBAL__N_111setBitFieldERjiij(ptr noundef nonnull align 4 dereferenceable(4) %30, i32 noundef %31, i32 noundef %32, i32 noundef %33)
  call void @llvm.lifetime.end.p0(i64 4, ptr %10) #5
  call void @llvm.lifetime.end.p0(i64 4, ptr %9) #5
  ret void

34:                                               ; preds = %20
  %35 = load ptr, ptr %7, align 8
  %36 = load i32, ptr %8, align 4
  %37 = insertvalue { ptr, i32 } poison, ptr %35, 0
  %38 = insertvalue { ptr, i32 } %37, i32 %36, 1
  resume { ptr, i32 } %38
}