; Function Attrs: mustprogress uwtable
define void @_ZN7Imf_3_48TimeCode14setBinaryGroupEii(ptr noundef nonnull align 4 captures(none) dereferenceable(8) %0, i32 noundef %1, i32 noundef %2) local_unnamed_addr #1 align 2 personality ptr @__gxx_personality_v0 {
  %4 = add i32 %1, -9
  %or.cond = icmp ult i32 %4, -8
  br i1 %or.cond, label %5, label %10

5:                                                ; preds = %3
  %6 = tail call ptr @__cxa_allocate_exception(i64 72) #7
  invoke void @_ZN7Iex_3_46ArgExcC1EPKc(ptr noundef nonnull align 8 dereferenceable(72) %6, ptr noundef nonnull @.str.4)
          to label %7 unwind label %8

7:                                                ; preds = %5
  tail call void @__cxa_throw(ptr nonnull %6, ptr nonnull @_ZTIN7Iex_3_46ArgExcE, ptr nonnull @_ZN7Iex_3_46ArgExcD1Ev) #8
  unreachable

8:                                                ; preds = %5
  %9 = landingpad { ptr, i32 }
          cleanup
  tail call void @__cxa_free_exception(ptr nonnull %6) #7
  resume { ptr, i32 } %9

10:                                               ; preds = %3
  %11 = shl nuw nsw i32 %1, 2
  %12 = add nsw i32 %11, -4
  %13 = getelementptr inbounds nuw i8, ptr %0, i64 4
  %14 = shl nuw i32 15, %12
  %15 = load i32, ptr %13, align 4, !tbaa !9
  %16 = xor i32 %14, -1
  %17 = and i32 %15, %16
  %18 = and i32 %2, 15
  %19 = shl nuw i32 %18, %12
  %20 = or i32 %17, %19
  store i32 %20, ptr %13, align 4, !tbaa !9
  ret void
}